target datalayout = "e-m:e-p270:32:32-p271:32:32-p272:64:64-i64:64-i128:128-f80:128-n8:16:32:64-S128"
target triple = "x86_64-pc-linux-gnu"

%"class.casadi::MXNode" = type { %"class.casadi::SharedObjectInternal", i64, %"class.std::vector", %"class.casadi::Sparsity" }
%"class.casadi::SharedObjectInternal" = type { ptr, i64, ptr }
%"class.std::vector" = type { %"struct.std::_Vector_base" }
%"struct.std::_Vector_base" = type { %"struct.std::_Vector_base<casadi::MX, std::allocator<casadi::MX>>::_Vector_impl" }
%"struct.std::_Vector_base<casadi::MX, std::allocator<casadi::MX>>::_Vector_impl" = type { %"struct.std::_Vector_base<casadi::MX, std::allocator<casadi::MX>>::_Vector_impl_data" }
%"struct.std::_Vector_base<casadi::MX, std::allocator<casadi::MX>>::_Vector_impl_data" = type { ptr, ptr, ptr }
%"class.casadi::Sparsity" = type { %"class.casadi::SharedObject" }
%"class.casadi::SharedObject" = type { ptr }
%"class.casadi::MX" = type { %"class.casadi::SharedObject" }
%"class.casadi::LinsolCall" = type { %"class.casadi::Solve", %"class.casadi::Linsol" }
%"class.casadi::Solve" = type { %"class.casadi::MXNode" }
%"class.casadi::Linsol" = type { %"class.casadi::SharedObject" }
%"class.casadi::LinsolCall.131" = type { %"class.casadi::Solve.125", %"class.casadi::Linsol" }
%"class.casadi::Solve.125" = type { %"class.casadi::MXNode" }

; Function Attrs: mustprogress nounwind uwtable
define linkonce_odr hidden void @_ZN6casadi5SolveILb0EED2Ev(ptr noundef nonnull align 8 dereferenceable(64) %0) unnamed_addr #5 comdat align 2 {
  %2 = alloca ptr, align 8
  store ptr %0, ptr %2, align 8
  %3 = load ptr, ptr %2, align 8
  call void @_ZN6casadi6MXNodeD2Ev(ptr noundef nonnull align 8 dereferenceable(64) %3) #3
  ret void
}

; Function Attrs: mustprogress nounwind uwtable
define linkonce_odr hidden void @_ZN6casadi5SolveILb1EED2Ev(ptr noundef nonnull align 8 dereferenceable(64) %0) unnamed_addr #5 comdat align 2 {
  %2 = alloca ptr, align 8
  store ptr %0, ptr %2, align 8
  %3 = load ptr, ptr %2, align 8
  call void @_ZN6casadi6MXNodeD2Ev(ptr noundef nonnull align 8 dereferenceable(64) %3) #3
  ret void
}

; Function Attrs: mustprogress uwtable
define linkonce_odr hidden void @_ZN6casadi6LinsolC2ERKS0_(ptr noundef nonnull align 8 dereferenceable(8) %0, ptr noundef nonnull align 8 dereferenceable(8) %1) unnamed_addr #4 comdat align 2 {
  %3 = alloca ptr, align 8
  %4 = alloca ptr, align 8
  store ptr %0, ptr %3, align 8
  store ptr %1, ptr %4, align 8
  %5 = load ptr, ptr %3, align 8
  %6 = load ptr, ptr %4, align 8
  call void @_ZN6casadi12SharedObjectC2ERKS0_(ptr noundef nonnull align 8 dereferenceable(8) %5, ptr noundef nonnull align 8 dereferenceable(8) %6)
  ret void
}

; Function Attrs: mustprogress uwtable
define linkonce_odr void @_ZN6casadi10LinsolCallILb0EEC2ERKNS_2MXES4_RKNS_6LinsolE(ptr noundef nonnull align 8 dereferenceable(72) %0, ptr noundef nonnull align 8 dereferenceable(8) %1, ptr noundef nonnull align 8 dereferenceable(8) %2, ptr noundef nonnull align 8 dereferenceable(8) %3) unnamed_addr #4 comdat align 2 personality ptr @__gxx_personality_v0 {
  %5 = alloca ptr, align 8
  %6 = alloca ptr, align 8
  %7 = alloca ptr, align 8
  %8 = alloca ptr, align 8
  %9 = alloca ptr, align 8
  %10 = alloca i32, align 4
  store ptr %0, ptr %5, align 8
  store ptr %1, ptr %6, align 8
  store ptr %2, ptr %7, align 8
  store ptr %3, ptr %8, align 8
  %11 = load ptr, ptr %5, align 8
  %12 = load ptr, ptr %6, align 8
  %13 = load ptr, ptr %7, align 8
  call void @_ZN6casadi5SolveILb0EEC2ERKNS_2MXES4_(ptr noundef nonnull align 8 dereferenceable(64) %11, ptr noundef nonnull align 8 dereferenceable(8) %12, ptr noundef nonnull align 8 dereferenceable(8) %13)
  store ptr getelementptr inbounds ({ [112 x ptr] }, ptr @_ZTVN6casadi10LinsolCallILb0EEE, i32 0, i32 0, i32 2), ptr %11, align 8
  %14 = getelementptr inbounds %"class.casadi::LinsolCall.131", ptr %11, i32 0, i32 1
  %15 = load ptr, ptr %8, align 8
  invoke void @_ZN6casadi6LinsolC2ERKS0_(ptr noundef nonnull align 8 dereferenceable(8) %14, ptr noundef nonnull align 8 dereferenceable(8) %15)
          to label %16 unwind label %17

16:                                               ; preds = %4
  ret void

17:                                               ; preds = %4
  %18 = landingpad { ptr, i32 }
          cleanup
  %19 = extractvalue { ptr, i32 } %18, 0
  store ptr %19, ptr %9, align 8
  %20 = extractvalue { ptr, i32 } %18, 1
  store i32 %20, ptr %10, align 4
  call void @_ZN6casadi5SolveILb0EED2Ev(ptr noundef nonnull align 8 dereferenceable(64) %11) #3
  br label %21

21:                                               ; preds = %17
  %22 = load ptr, ptr %9, align 8
  %23 = load i32, ptr %10, align 4
  %24 = insertvalue { ptr, i32 } poison, ptr %22, 0
  %25 = insertvalue { ptr, i32 } %24, i32 %23, 1
  resume { ptr, i32 } %25
}

; Function Attrs: mustprogress uwtable
define linkonce_odr void @_ZN6casadi10LinsolCallILb1EEC2ERKNS_2MXES4_RKNS_6LinsolE(ptr noundef nonnull align 8 dereferenceable(72) %0, ptr noundef nonnull align 8 dereferenceable(8) %1, ptr noundef nonnull align 8 dereferenceable(8) %2, ptr noundef nonnull align 8 dereferenceable(8) %3) unnamed_addr #4 comdat align 2 personality ptr @__gxx_personality_v0 {
  %5 = alloca ptr, align 8
  %6 = alloca ptr, align 8
  %7 = alloca ptr, align 8
  %8 = alloca ptr, align 8
  %9 = alloca ptr, align 8
  %10 = alloca i32, align 4
  store ptr %0, ptr %5, align 8
  store ptr %1, ptr %6, align 8
  store ptr %2, ptr %7, align 8
  store ptr %3, ptr %8, align 8
  %11 = load ptr, ptr %5, align 8
  %12 = load ptr, ptr %6, align 8
  %13 = load ptr, ptr %7, align 8
  call void @_ZN6casadi5SolveILb1EEC2ERKNS_2MXES4_(ptr noundef nonnull align 8 dereferenceable(64) %11, ptr noundef nonnull align 8 dereferenceable(8) %12, ptr noundef nonnull align 8 dereferenceable(8) %13)
  store ptr getelementptr inbounds ({ [112 x ptr] }, ptr @_ZTVN6casadi10LinsolCallILb1EEE, i32 0, i32 0, i32 2), ptr %11, align 8
  %14 = getelementptr inbounds %"class.casadi::LinsolCall", ptr %11, i32 0, i32 1
  %15 = load ptr, ptr %8, align 8
  invoke void @_ZN6casadi6LinsolC2ERKS0_(ptr noundef nonnull align 8 dereferenceable(8) %14, ptr noundef nonnull align 8 dereferenceable(8) %15)
          to label %16 unwind label %17

16:                                               ; preds = %4
  ret void

17:                                               ; preds = %4
  %18 = landingpad { ptr, i32 }
          cleanup
  %19 = extractvalue { ptr, i32 } %18, 0
  store ptr %19, ptr %9, align 8
  %20 = extractvalue { ptr, i32 } %18, 1
  store i32 %20, ptr %10, align 4
  call void @_ZN6casadi5SolveILb1EED2Ev(ptr noundef nonnull align 8 dereferenceable(64) %11) #3
  br label %21

21:                                               ; preds = %17
  %22 = load ptr, ptr %9, align 8
  %23 = load i32, ptr %10, align 4
  %24 = insertvalue { ptr, i32 } poison, ptr %22, 0
  %25 = insertvalue { ptr, i32 } %24, i32 %23, 1
  resume { ptr, i32 } %25
}

; Function Attrs: mustprogress uwtable
define linkonce_odr hidden void @_ZN6casadi7densifyERKNS_2MXE(ptr dead_on_unwind noalias writable sret(%"class.casadi::MX") align 8 %0, ptr noundef nonnull align 8 dereferenceable(8) %1) #4 comdat personality ptr @__gxx_personality_v0 {
  %3 = alloca ptr, align 8
  %4 = alloca ptr, align 8
  %5 = alloca %"class.casadi::MX", align 8
  %6 = alloca ptr, align 8
  %7 = alloca i32, align 4
  store ptr %0, ptr %3, align 8
  store ptr %1, ptr %4, align 8
  %8 = load ptr, ptr %4, align 8
  call void @_ZN6casadi2MXC1Ed(ptr noundef nonnull align 8 dereferenceable(8) %5, double noundef 0.000000e+00)
  invoke void @_ZN6casadi2MX7densifyERKS0_S2_(ptr dead_on_unwind writable sret(%"class.casadi::MX") align 8 %0, ptr noundef nonnull align 8 dereferenceable(8) %8, ptr noundef nonnull align 8 dereferenceable(8) %5)
          to label %9 unwind label %10

9:                                                ; preds = %2
  call void @_ZN6casadi2MXD1Ev(ptr noundef nonnull align 8 dereferenceable(8) %5) #3
  ret void

10:                                               ; preds = %2
  %11 = landingpad { ptr, i32 }
          cleanup
  %12 = extractvalue { ptr, i32 } %11, 0
  store ptr %12, ptr %6, align 8
  %13 = extractvalue { ptr, i32 } %11, 1
  store i32 %13, ptr %7, align 4
  call void @_ZN6casadi2MXD1Ev(ptr noundef nonnull align 8 dereferenceable(8) %5) #3
  br label %14

14:                                               ; preds = %10
  %15 = load ptr, ptr %6, align 8
  %16 = load i32, ptr %7, align 4
  %17 = insertvalue { ptr, i32 } poison, ptr %15, 0
  %18 = insertvalue { ptr, i32 } %17, i32 %16, 1
  resume { ptr, i32 } %18
}

; Function Attrs: mustprogress uwtable
define void @_ZNK6casadi6MXNode9get_solveERKNS_2MXEbRKNS_6LinsolE(ptr dead_on_unwind noalias writable sret(%"class.casadi::MX") align 8 %0, ptr noundef nonnull align 8 dereferenceable(64) %1, ptr noundef nonnull align 8 dereferenceable(8) %2, i1 noundef zeroext %3, ptr noundef nonnull align 8 dereferenceable(8) %4) unnamed_addr #4 align 2 personality ptr @__gxx_personality_v0 {
  %6 = alloca ptr, align 8
  %7 = alloca ptr, align 8
  %8 = alloca ptr, align 8
  %9 = alloca i8, align 1
  %10 = alloca ptr, align 8
  %11 = alloca %"class.casadi::MX", align 8
  %12 = alloca ptr, align 8
  %13 = alloca i32, align 4
  %14 = alloca %"class.casadi::MX", align 8
  %15 = alloca i1, align 1
  %16 = alloca %"class.casadi::MX", align 8
  %17 = alloca %"class.casadi::MX", align 8
  %18 = alloca i1, align 1
  store ptr %0, ptr %6, align 8
  store ptr %1, ptr %7, align 8
  store ptr %2, ptr %8, align 8
  %19 = zext i1 %3 to i8
  store i8 %19, ptr %9, align 1
  store ptr %4, ptr %10, align 8
  %20 = load ptr, ptr %7, align 8
  %21 = load i8, ptr %9, align 1
  %22 = trunc i8 %21 to i1
  br i1 %22, label %23, label %48

23:                                               ; preds = %5
  %24 = call noalias noundef nonnull ptr @_Znwm(i64 noundef 72) #19
  store i1 true, ptr %15, align 1
  %25 = load ptr, ptr %8, align 8
  invoke void @_ZN6casadi7densifyERKNS_2MXE(ptr dead_on_unwind writable sret(%"class.casadi::MX") align 8 %11, ptr noundef nonnull align 8 dereferenceable(8) %25)
          to label %26 unwind label %31

26:                                               ; preds = %23
  invoke void @_ZNK6casadi20SharedObjectInternal16shared_from_thisINS_2MXEEEKT_v(ptr dead_on_unwind writable sret(%"class.casadi::MX") align 8 %14, ptr noundef nonnull align 8 dereferenceable(24) %20)
          to label %27 unwind label %35

27:                                               ; preds = %26
  %28 = load ptr, ptr %10, align 8
  invoke void @_ZN6casadi10LinsolCallILb1EEC2ERKNS_2MXES4_RKNS_6LinsolE(ptr noundef nonnull align 8 dereferenceable(72) %24, ptr noundef nonnull align 8 dereferenceable(8) %11, ptr noundef nonnull align 8 dereferenceable(8) %14, ptr noundef nonnull align 8 dereferenceable(8) %28)
          to label %29 unwind label %39

29:                                               ; preds = %27
  store i1 false, ptr %15, align 1
  invoke void @_ZN6casadi2MX6createEPNS_6MXNodeE(ptr dead_on_unwind writable sret(%"class.casadi::MX") align 8 %0, ptr noundef %24)
          to label %30 unwind label %39

30:                                               ; preds = %29
  call void @_ZN6casadi2MXD1Ev(ptr noundef nonnull align 8 dereferenceable(8) %14) #3
  call void @_ZN6casadi2MXD1Ev(ptr noundef nonnull align 8 dereferenceable(8) %11) #3
  br label %73

31:                                               ; preds = %23
  %32 = landingpad { ptr, i32 }
          cleanup
  %33 = extractvalue { ptr, i32 } %32, 0
  store ptr %33, ptr %12, align 8
  %34 = extractvalue { ptr, i32 } %32, 1
  store i32 %34, ptr %13, align 4
  br label %44

35:                                               ; preds = %26
  %36 = landingpad { ptr, i32 }
          cleanup
  %37 = extractvalue { ptr, i32 } %36, 0
  store ptr %37, ptr %12, align 8
  %38 = extractvalue { ptr, i32 } %36, 1
  store i32 %38, ptr %13, align 4
  br label %43

39:                                               ; preds = %29, %27
  %40 = landingpad { ptr, i32 }
          cleanup
  %41 = extractvalue { ptr, i32 } %40, 0
  store ptr %41, ptr %12, align 8
  %42 = extractvalue { ptr, i32 } %40, 1
  store i32 %42, ptr %13, align 4
  call void @_ZN6casadi2MXD1Ev(ptr noundef nonnull align 8 dereferenceable(8) %14) #3
  br label %43

43:                                               ; preds = %39, %35
  call void @_ZN6casadi2MXD1Ev(ptr noundef nonnull align 8 dereferenceable(8) %11) #3
  br label %44

44:                                               ; preds = %43, %31
  %45 = load i1, ptr %15, align 1
  br i1 %45, label %46, label %47

46:                                               ; preds = %44
  call void @_ZdlPv(ptr noundef %24) #20
  br label %47

47:                                               ; preds = %46, %44
  br label %74

48:                                               ; preds = %5
  %49 = call noalias noundef nonnull ptr @_Znwm(i64 noundef 72) #19
  store i1 true, ptr %18, align 1
  %50 = load ptr, ptr %8, align 8
  invoke void @_ZN6casadi7densifyERKNS_2MXE(ptr dead_on_unwind writable sret(%"class.casadi::MX") align 8 %16, ptr noundef nonnull align 8 dereferenceable(8) %50)
          to label %51 unwind label %56

51:                                               ; preds = %48
  invoke void @_ZNK6casadi20SharedObjectInternal16shared_from_thisINS_2MXEEEKT_v(ptr dead_on_unwind writable sret(%"class.casadi::MX") align 8 %17, ptr noundef nonnull align 8 dereferenceable(24) %20)
          to label %52 unwind label %60

52:                                               ; preds = %51
  %53 = load ptr, ptr %10, align 8
  invoke void @_ZN6casadi10LinsolCallILb0EEC2ERKNS_2MXES4_RKNS_6LinsolE(ptr noundef nonnull align 8 dereferenceable(72) %49, ptr noundef nonnull align 8 dereferenceable(8) %16, ptr noundef nonnull align 8 dereferenceable(8) %17, ptr noundef nonnull align 8 dereferenceable(8) %53)
          to label %54 unwind label %64

54:                                               ; preds = %52
  store i1 false, ptr %18, align 1
  invoke void @_ZN6casadi2MX6createEPNS_6MXNodeE(ptr dead_on_unwind writable sret(%"class.casadi::MX") align 8 %0, ptr noundef %49)
          to label %55 unwind label %64

55:                                               ; preds = %54
  call void @_ZN6casadi2MXD1Ev(ptr noundef nonnull align 8 dereferenceable(8) %17) #3
  call void @_ZN6casadi2MXD1Ev(ptr noundef nonnull align 8 dereferenceable(8) %16) #3
  br label %73

56:                                               ; preds = %48
  %57 = landingpad { ptr, i32 }
          cleanup
  %58 = extractvalue { ptr, i32 } %57, 0
  store ptr %58, ptr %12, align 8
  %59 = extractvalue { ptr, i32 } %57, 1
  store i32 %59, ptr %13, align 4
  br label %69

60:                                               ; preds = %51
  %61 = landingpad { ptr, i32 }
          cleanup
  %62 = extractvalue { ptr, i32 } %61, 0
  store ptr %62, ptr %12, align 8
  %63 = extractvalue { ptr, i32 } %61, 1
  store i32 %63, ptr %13, align 4
  br label %68

64:                                               ; preds = %54, %52
  %65 = landingpad { ptr, i32 }
          cleanup
  %66 = extractvalue { ptr, i32 } %65, 0
  store ptr %66, ptr %12, align 8
  %67 = extractvalue { ptr, i32 } %65, 1
  store i32 %67, ptr %13, align 4
  call void @_ZN6casadi2MXD1Ev(ptr noundef nonnull align 8 dereferenceable(8) %17) #3
  br label %68

68:                                               ; preds = %64, %60
  call void @_ZN6casadi2MXD1Ev(ptr noundef nonnull align 8 dereferenceable(8) %16) #3
  br label %69

69:                                               ; preds = %68, %56
  %70 = load i1, ptr %18, align 1
  br i1 %70, label %71, label %72

71:                                               ; preds = %69
  call void @_ZdlPv(ptr noundef %49) #20
  br label %72

72:                                               ; preds = %71, %69
  br label %74

73:                                               ; preds = %55, %30
  ret void

74:                                               ; preds = %72, %47
  %75 = load ptr, ptr %12, align 8
  %76 = load i32, ptr %13, align 4
  %77 = insertvalue { ptr, i32 } poison, ptr %75, 0
  %78 = insertvalue { ptr, i32 } %77, i32 %76, 1
  resume { ptr, i32 } %78
}