; Function Attrs: mustprogress uwtable
define void @_ZNK6casadi6MXNode9get_solveERKNS_2MXEbRKNS_6LinsolE(ptr dead_on_unwind noalias writable sret(%"class.casadi::MX") align 8 %0, ptr noundef nonnull align 8 dereferenceable(64) %1, ptr noundef nonnull align 8 dereferenceable(8) %2, i1 noundef zeroext %3, ptr noundef nonnull align 8 dereferenceable(8) %4) unnamed_addr #3 align 2 personality ptr @__gxx_personality_v0 {
  %6 = alloca %"class.casadi::MX", align 8
  %7 = alloca %"class.casadi::MX", align 8
  %8 = alloca %"class.casadi::MX", align 8
  %9 = alloca %"class.casadi::MX", align 8
  %10 = alloca %"class.casadi::MX", align 8
  %11 = alloca %"class.casadi::MX", align 8
  %12 = tail call noalias noundef nonnull dereferenceable(72) ptr @_Znwm(i64 noundef 72) #35
  br i1 %3, label %13, label %26

13:                                               ; preds = %5
  call void @llvm.lifetime.start.p0(i64 8, ptr nonnull %7)
  invoke void @_ZN6casadi2MXC1Ed(ptr noundef nonnull align 8 dereferenceable(8) %7, double noundef 0.000000e+00)
          to label %.noexc unwind label %21

.noexc:                                           ; preds = %13
  invoke void @_ZN6casadi2MX7densifyERKS0_S2_(ptr dead_on_unwind nonnull writable sret(%"class.casadi::MX") align 8 %8, ptr noundef nonnull align 8 dereferenceable(8) %2, ptr noundef nonnull align 8 dereferenceable(8) %7)
          to label %16 unwind label %14

14:                                               ; preds = %.noexc
  %15 = landingpad { ptr, i32 }
          cleanup
  call void @_ZN6casadi2MXD1Ev(ptr noundef nonnull align 8 dereferenceable(8) %7) #31
  br label %.sink.split

16:                                               ; preds = %.noexc
  call void @_ZN6casadi2MXD1Ev(ptr noundef nonnull align 8 dereferenceable(8) %7) #31
  call void @llvm.lifetime.end.p0(i64 8, ptr nonnull %7)
  invoke void @_ZNK6casadi20SharedObjectInternal16shared_from_thisINS_2MXEEEKT_v(ptr dead_on_unwind nonnull writable sret(%"class.casadi::MX") align 8 %9, ptr noundef nonnull align 8 dereferenceable(24) %1)
          to label %17 unwind label %.body.thread39

17:                                               ; preds = %16
  invoke void @_ZN6casadi5SolveILb1EEC2ERKNS_2MXES4_(ptr noundef nonnull align 8 dereferenceable(64) %12, ptr noundef nonnull align 8 dereferenceable(8) %8, ptr noundef nonnull align 8 dereferenceable(8) %9)
          to label %.noexc26 unwind label %24

.noexc26:                                         ; preds = %17
  store ptr getelementptr inbounds ({ [112 x ptr] }, ptr @_ZTVN6casadi10LinsolCallILb1EEE, i64 0, i32 0, i64 2), ptr %12, align 8
  %18 = getelementptr inbounds i8, ptr %12, i64 64
  invoke void @_ZN6casadi12SharedObjectC2ERKS0_(ptr noundef nonnull align 8 dereferenceable(8) %18, ptr noundef nonnull align 8 dereferenceable(8) %4)
          to label %_ZN6casadi10LinsolCallILb1EEC2ERKNS_2MXES4_RKNS_6LinsolE.exit unwind label %19

19:                                               ; preds = %.noexc26
  %20 = landingpad { ptr, i32 }
          cleanup
  call void @_ZN6casadi6MXNodeD2Ev(ptr noundef nonnull align 8 dereferenceable(64) %12) #31
  br label %.body

_ZN6casadi10LinsolCallILb1EEC2ERKNS_2MXES4_RKNS_6LinsolE.exit: ; preds = %.noexc26
  invoke void @_ZN6casadi2MX6createEPNS_6MXNodeE(ptr dead_on_unwind writable sret(%"class.casadi::MX") align 8 %0, ptr noundef nonnull %12)
          to label %39 unwind label %24

21:                                               ; preds = %13
  %22 = landingpad { ptr, i32 }
          cleanup
  br label %.sink.split

.body.thread39:                                   ; preds = %16
  %23 = landingpad { ptr, i32 }
          cleanup
  call void @_ZN6casadi2MXD1Ev(ptr noundef nonnull align 8 dereferenceable(8) %8) #31
  br label %.sink.split

24:                                               ; preds = %17, %_ZN6casadi10LinsolCallILb1EEC2ERKNS_2MXES4_RKNS_6LinsolE.exit
  %.09 = phi i1 [ false, %_ZN6casadi10LinsolCallILb1EEC2ERKNS_2MXES4_RKNS_6LinsolE.exit ], [ true, %17 ]
  %25 = landingpad { ptr, i32 }
          cleanup
  br label %.body

.body:                                            ; preds = %24, %19
  %.09.lpad-body = phi i1 [ %.09, %24 ], [ true, %19 ]
  %eh.lpad-body28 = phi { ptr, i32 } [ %25, %24 ], [ %20, %19 ]
  call void @_ZN6casadi2MXD1Ev(ptr noundef nonnull align 8 dereferenceable(8) %9) #31
  call void @_ZN6casadi2MXD1Ev(ptr noundef nonnull align 8 dereferenceable(8) %8) #31
  br i1 %.09.lpad-body, label %.sink.split, label %40

26:                                               ; preds = %5
  call void @llvm.lifetime.start.p0(i64 8, ptr nonnull %6)
  invoke void @_ZN6casadi2MXC1Ed(ptr noundef nonnull align 8 dereferenceable(8) %6, double noundef 0.000000e+00)
          to label %.noexc29 unwind label %34

.noexc29:                                         ; preds = %26
  invoke void @_ZN6casadi2MX7densifyERKS0_S2_(ptr dead_on_unwind nonnull writable sret(%"class.casadi::MX") align 8 %10, ptr noundef nonnull align 8 dereferenceable(8) %2, ptr noundef nonnull align 8 dereferenceable(8) %6)
          to label %29 unwind label %27

27:                                               ; preds = %.noexc29
  %28 = landingpad { ptr, i32 }
          cleanup
  call void @_ZN6casadi2MXD1Ev(ptr noundef nonnull align 8 dereferenceable(8) %6) #31
  br label %.sink.split

29:                                               ; preds = %.noexc29
  call void @_ZN6casadi2MXD1Ev(ptr noundef nonnull align 8 dereferenceable(8) %6) #31
  call void @llvm.lifetime.end.p0(i64 8, ptr nonnull %6)
  invoke void @_ZNK6casadi20SharedObjectInternal16shared_from_thisINS_2MXEEEKT_v(ptr dead_on_unwind nonnull writable sret(%"class.casadi::MX") align 8 %11, ptr noundef nonnull align 8 dereferenceable(24) %1)
          to label %30 unwind label %.body30.thread45

30:                                               ; preds = %29
  invoke void @_ZN6casadi5SolveILb0EEC2ERKNS_2MXES4_(ptr noundef nonnull align 8 dereferenceable(64) %12, ptr noundef nonnull align 8 dereferenceable(8) %10, ptr noundef nonnull align 8 dereferenceable(8) %11)
          to label %.noexc33 unwind label %37

.noexc33:                                         ; preds = %30
  store ptr getelementptr inbounds ({ [112 x ptr] }, ptr @_ZTVN6casadi10LinsolCallILb0EEE, i64 0, i32 0, i64 2), ptr %12, align 8
  %31 = getelementptr inbounds i8, ptr %12, i64 64
  invoke void @_ZN6casadi12SharedObjectC2ERKS0_(ptr noundef nonnull align 8 dereferenceable(8) %31, ptr noundef nonnull align 8 dereferenceable(8) %4)
          to label %_ZN6casadi10LinsolCallILb0EEC2ERKNS_2MXES4_RKNS_6LinsolE.exit unwind label %32

32:                                               ; preds = %.noexc33
  %33 = landingpad { ptr, i32 }
          cleanup
  call void @_ZN6casadi6MXNodeD2Ev(ptr noundef nonnull align 8 dereferenceable(64) %12) #31
  br label %.body30

_ZN6casadi10LinsolCallILb0EEC2ERKNS_2MXES4_RKNS_6LinsolE.exit: ; preds = %.noexc33
  invoke void @_ZN6casadi2MX6createEPNS_6MXNodeE(ptr dead_on_unwind writable sret(%"class.casadi::MX") align 8 %0, ptr noundef nonnull %12)
          to label %39 unwind label %37

34:                                               ; preds = %26
  %35 = landingpad { ptr, i32 }
          cleanup
  br label %.sink.split

.body30.thread45:                                 ; preds = %29
  %36 = landingpad { ptr, i32 }
          cleanup
  call void @_ZN6casadi2MXD1Ev(ptr noundef nonnull align 8 dereferenceable(8) %10) #31
  br label %.sink.split

37:                                               ; preds = %30, %_ZN6casadi10LinsolCallILb0EEC2ERKNS_2MXES4_RKNS_6LinsolE.exit
  %.0 = phi i1 [ false, %_ZN6casadi10LinsolCallILb0EEC2ERKNS_2MXES4_RKNS_6LinsolE.exit ], [ true, %30 ]
  %38 = landingpad { ptr, i32 }
          cleanup
  br label %.body30

.body30:                                          ; preds = %37, %32
  %.0.lpad-body = phi i1 [ %.0, %37 ], [ true, %32 ]
  %eh.lpad-body35 = phi { ptr, i32 } [ %38, %37 ], [ %33, %32 ]
  call void @_ZN6casadi2MXD1Ev(ptr noundef nonnull align 8 dereferenceable(8) %11) #31
  call void @_ZN6casadi2MXD1Ev(ptr noundef nonnull align 8 dereferenceable(8) %10) #31
  br i1 %.0.lpad-body, label %.sink.split, label %40

39:                                               ; preds = %_ZN6casadi10LinsolCallILb0EEC2ERKNS_2MXES4_RKNS_6LinsolE.exit, %_ZN6casadi10LinsolCallILb1EEC2ERKNS_2MXES4_RKNS_6LinsolE.exit
  %.sink48 = phi ptr [ %9, %_ZN6casadi10LinsolCallILb1EEC2ERKNS_2MXES4_RKNS_6LinsolE.exit ], [ %11, %_ZN6casadi10LinsolCallILb0EEC2ERKNS_2MXES4_RKNS_6LinsolE.exit ]
  %.sink = phi ptr [ %8, %_ZN6casadi10LinsolCallILb1EEC2ERKNS_2MXES4_RKNS_6LinsolE.exit ], [ %10, %_ZN6casadi10LinsolCallILb0EEC2ERKNS_2MXES4_RKNS_6LinsolE.exit ]
  call void @_ZN6casadi2MXD1Ev(ptr noundef nonnull align 8 dereferenceable(8) %.sink48) #31
  call void @_ZN6casadi2MXD1Ev(ptr noundef nonnull align 8 dereferenceable(8) %.sink) #31
  ret void

.sink.split:                                      ; preds = %.body30, %.body30.thread45, %27, %34, %.body, %.body.thread39, %14, %21
  %.pn22.pn.pn.ph = phi { ptr, i32 } [ %eh.lpad-body28, %.body ], [ %23, %.body.thread39 ], [ %15, %14 ], [ %22, %21 ], [ %eh.lpad-body35, %.body30 ], [ %36, %.body30.thread45 ], [ %28, %27 ], [ %35, %34 ]
  call void @_ZdlPv(ptr noundef nonnull %12) #32
  br label %40

40:                                               ; preds = %.sink.split, %.body30, %.body
  %.pn22.pn.pn = phi { ptr, i32 } [ %eh.lpad-body28, %.body ], [ %eh.lpad-body35, %.body30 ], [ %.pn22.pn.pn.ph, %.sink.split ]
  resume { ptr, i32 } %.pn22.pn.pn
}